target datalayout = "e-m:e-p270:32:32-p271:32:32-p272:64:64-i64:64-i128:128-f80:128-n8:16:32:64-S128"
target triple = "x86_64-pc-linux-gnu"

%struct.lexbor_shs_hash_t = type { i32, i32, i32 }
%struct.lxb_encoding_encode_t = type { ptr, ptr, i64, i64, ptr, i64, i32 }

@lxb_encoding_single_hash_iso_8859_5 = external constant [344 x %struct.lexbor_shs_hash_t], align 16

; Function Attrs: nounwind uwtable
define internal ptr @lexbor_shs_hash_get_static(ptr noundef %0, i64 noundef %1, i32 noundef %2) #0 {
  %4 = alloca ptr, align 8
  %5 = alloca ptr, align 8
  %6 = alloca i64, align 8
  %7 = alloca i32, align 4
  %8 = alloca ptr, align 8
  store ptr %0, ptr %5, align 8
  store i64 %1, ptr %6, align 8
  store i32 %2, ptr %7, align 4
  %9 = load ptr, ptr %5, align 8
  %10 = load i32, ptr %7, align 4
  %11 = zext i32 %10 to i64
  %12 = load i64, ptr %6, align 8
  %13 = urem i64 %11, %12
  %14 = add i64 %13, 1
  %15 = getelementptr inbounds %struct.lexbor_shs_hash_t, ptr %9, i64 %14
  store ptr %15, ptr %8, align 8
  br label %16

16:                                               ; preds = %31, %3
  %17 = load ptr, ptr %8, align 8
  %18 = getelementptr inbounds %struct.lexbor_shs_hash_t, ptr %17, i32 0, i32 0
  %19 = load i32, ptr %18, align 4
  %20 = load i32, ptr %7, align 4
  %21 = icmp eq i32 %19, %20
  br i1 %21, label %22, label %24

22:                                               ; preds = %16
  %23 = load ptr, ptr %8, align 8
  store ptr %23, ptr %4, align 8
  br label %36

24:                                               ; preds = %16
  %25 = load ptr, ptr %5, align 8
  %26 = load ptr, ptr %8, align 8
  %27 = getelementptr inbounds %struct.lexbor_shs_hash_t, ptr %26, i32 0, i32 2
  %28 = load i32, ptr %27, align 4
  %29 = zext i32 %28 to i64
  %30 = getelementptr inbounds %struct.lexbor_shs_hash_t, ptr %25, i64 %29
  store ptr %30, ptr %8, align 8
  br label %31

31:                                               ; preds = %24
  %32 = load ptr, ptr %8, align 8
  %33 = load ptr, ptr %5, align 8
  %34 = icmp ne ptr %32, %33
  br i1 %34, label %16, label %35

35:                                               ; preds = %31
  store ptr null, ptr %4, align 8
  br label %36

36:                                               ; preds = %35, %22
  %37 = load ptr, ptr %4, align 8
  ret ptr %37
}

; Function Attrs: nounwind uwtable
define hidden i32 @lxb_encoding_encode_iso_8859_5(ptr noundef %0, ptr noundef %1, ptr noundef %2) #0 {
  %4 = alloca i32, align 4
  %5 = alloca ptr, align 8
  %6 = alloca ptr, align 8
  %7 = alloca ptr, align 8
  %8 = alloca i32, align 4
  %9 = alloca ptr, align 8
  %10 = alloca ptr, align 8
  store ptr %0, ptr %5, align 8
  store ptr %1, ptr %6, align 8
  store ptr %2, ptr %7, align 8
  br label %11

11:                                               ; preds = %3
  %12 = load ptr, ptr %6, align 8
  %13 = load ptr, ptr %12, align 8
  store ptr %13, ptr %9, align 8
  br label %14

14:                                               ; preds = %125, %11
  %15 = load ptr, ptr %9, align 8
  %16 = load ptr, ptr %7, align 8
  %17 = icmp ult ptr %15, %16
  br i1 %17, label %18, label %128

18:                                               ; preds = %14
  %19 = load ptr, ptr %9, align 8
  %20 = load i32, ptr %19, align 4
  store i32 %20, ptr %8, align 4
  %21 = load i32, ptr %8, align 4
  %22 = icmp ult i32 %21, 128
  br i1 %22, label %23, label %47

23:                                               ; preds = %18
  br label %24

24:                                               ; preds = %23
  %25 = load ptr, ptr %5, align 8
  %26 = getelementptr inbounds %struct.lxb_encoding_encode_t, ptr %25, i32 0, i32 3
  %27 = load i64, ptr %26, align 8
  %28 = load ptr, ptr %5, align 8
  %29 = getelementptr inbounds %struct.lxb_encoding_encode_t, ptr %28, i32 0, i32 2
  %30 = load i64, ptr %29, align 8
  %31 = icmp eq i64 %27, %30
  br i1 %31, label %32, label %35

32:                                               ; preds = %24
  %33 = load ptr, ptr %9, align 8
  %34 = load ptr, ptr %6, align 8
  store ptr %33, ptr %34, align 8
  store i32 15, ptr %4, align 4
  br label %129

35:                                               ; preds = %24
  %36 = load i32, ptr %8, align 4
  %37 = trunc i32 %36 to i8
  %38 = load ptr, ptr %5, align 8
  %39 = getelementptr inbounds %struct.lxb_encoding_encode_t, ptr %38, i32 0, i32 1
  %40 = load ptr, ptr %39, align 8
  %41 = load ptr, ptr %5, align 8
  %42 = getelementptr inbounds %struct.lxb_encoding_encode_t, ptr %41, i32 0, i32 3
  %43 = load i64, ptr %42, align 8
  %44 = add i64 %43, 1
  store i64 %44, ptr %42, align 8
  %45 = getelementptr inbounds i8, ptr %40, i64 %43
  store i8 %37, ptr %45, align 1
  br label %46

46:                                               ; preds = %35
  br label %125

47:                                               ; preds = %18
  %48 = load i32, ptr %8, align 4
  %49 = call ptr @lexbor_shs_hash_get_static(ptr noundef @lxb_encoding_single_hash_iso_8859_5, i64 noundef 343, i32 noundef %48)
  store ptr %49, ptr %10, align 8
  %50 = load ptr, ptr %10, align 8
  %51 = icmp eq ptr %50, null
  br i1 %51, label %52, label %98

52:                                               ; preds = %47
  br label %53

53:                                               ; preds = %52
  %54 = load ptr, ptr %5, align 8
  %55 = getelementptr inbounds %struct.lxb_encoding_encode_t, ptr %54, i32 0, i32 4
  %56 = load ptr, ptr %55, align 8
  %57 = icmp eq ptr %56, null
  br i1 %57, label %58, label %61

58:                                               ; preds = %53
  %59 = load ptr, ptr %9, align 8
  %60 = load ptr, ptr %6, align 8
  store ptr %59, ptr %60, align 8
  store i32 1, ptr %4, align 4
  br label %129

61:                                               ; preds = %53
  %62 = load ptr, ptr %5, align 8
  %63 = getelementptr inbounds %struct.lxb_encoding_encode_t, ptr %62, i32 0, i32 3
  %64 = load i64, ptr %63, align 8
  %65 = load ptr, ptr %5, align 8
  %66 = getelementptr inbounds %struct.lxb_encoding_encode_t, ptr %65, i32 0, i32 5
  %67 = load i64, ptr %66, align 8
  %68 = add i64 %64, %67
  %69 = load ptr, ptr %5, align 8
  %70 = getelementptr inbounds %struct.lxb_encoding_encode_t, ptr %69, i32 0, i32 2
  %71 = load i64, ptr %70, align 8
  %72 = icmp ugt i64 %68, %71
  br i1 %72, label %73, label %76

73:                                               ; preds = %61
  %74 = load ptr, ptr %9, align 8
  %75 = load ptr, ptr %6, align 8
  store ptr %74, ptr %75, align 8
  store i32 15, ptr %4, align 4
  br label %129

76:                                               ; preds = %61
  %77 = load ptr, ptr %5, align 8
  %78 = getelementptr inbounds %struct.lxb_encoding_encode_t, ptr %77, i32 0, i32 1
  %79 = load ptr, ptr %78, align 8
  %80 = load ptr, ptr %5, align 8
  %81 = getelementptr inbounds %struct.lxb_encoding_encode_t, ptr %80, i32 0, i32 3
  %82 = load i64, ptr %81, align 8
  %83 = getelementptr inbounds i8, ptr %79, i64 %82
  %84 = load ptr, ptr %5, align 8
  %85 = getelementptr inbounds %struct.lxb_encoding_encode_t, ptr %84, i32 0, i32 4
  %86 = load ptr, ptr %85, align 8
  %87 = load ptr, ptr %5, align 8
  %88 = getelementptr inbounds %struct.lxb_encoding_encode_t, ptr %87, i32 0, i32 5
  %89 = load i64, ptr %88, align 8
  call void @llvm.memcpy.p0.p0.i64(ptr align 1 %83, ptr align 1 %86, i64 %89, i1 false)
  %90 = load ptr, ptr %5, align 8
  %91 = getelementptr inbounds %struct.lxb_encoding_encode_t, ptr %90, i32 0, i32 5
  %92 = load i64, ptr %91, align 8
  %93 = load ptr, ptr %5, align 8
  %94 = getelementptr inbounds %struct.lxb_encoding_encode_t, ptr %93, i32 0, i32 3
  %95 = load i64, ptr %94, align 8
  %96 = add i64 %95, %92
  store i64 %96, ptr %94, align 8
  br label %97

97:                                               ; preds = %76
  br label %125

98:                                               ; preds = %47
  br label %99

99:                                               ; preds = %98
  %100 = load ptr, ptr %5, align 8
  %101 = getelementptr inbounds %struct.lxb_encoding_encode_t, ptr %100, i32 0, i32 3
  %102 = load i64, ptr %101, align 8
  %103 = load ptr, ptr %5, align 8
  %104 = getelementptr inbounds %struct.lxb_encoding_encode_t, ptr %103, i32 0, i32 2
  %105 = load i64, ptr %104, align 8
  %106 = icmp eq i64 %102, %105
  br i1 %106, label %107, label %110

107:                                              ; preds = %99
  %108 = load ptr, ptr %9, align 8
  %109 = load ptr, ptr %6, align 8
  store ptr %108, ptr %109, align 8
  store i32 15, ptr %4, align 4
  br label %129

110:                                              ; preds = %99
  %111 = load ptr, ptr %10, align 8
  %112 = getelementptr inbounds %struct.lexbor_shs_hash_t, ptr %111, i32 0, i32 1
  %113 = load i32, ptr %112, align 4
  %114 = zext i32 %113 to i64
  %115 = trunc i64 %114 to i8
  %116 = load ptr, ptr %5, align 8
  %117 = getelementptr inbounds %struct.lxb_encoding_encode_t, ptr %116, i32 0, i32 1
  %118 = load ptr, ptr %117, align 8
  %119 = load ptr, ptr %5, align 8
  %120 = getelementptr inbounds %struct.lxb_encoding_encode_t, ptr %119, i32 0, i32 3
  %121 = load i64, ptr %120, align 8
  %122 = add i64 %121, 1
  store i64 %122, ptr %120, align 8
  %123 = getelementptr inbounds i8, ptr %118, i64 %121
  store i8 %115, ptr %123, align 1
  br label %124

124:                                              ; preds = %110
  br label %125

125:                                              ; preds = %124, %97, %46
  %126 = load ptr, ptr %9, align 8
  %127 = getelementptr inbounds i32, ptr %126, i32 1
  store ptr %127, ptr %9, align 8
  br label %14

128:                                              ; preds = %14
  store i32 0, ptr %4, align 4
  br label %129

129:                                              ; preds = %128, %107, %73, %58, %32
  %130 = load i32, ptr %4, align 4
  ret i32 %130
}